; Function Attrs: mustprogress uwtable
define hidden noundef ptr @pj_gstmerc(ptr noundef %0) local_unnamed_addr #0 {
  %.not = icmp eq ptr %0, null
  br i1 %.not, label %4, label %2

2:                                                ; preds = %1
  %3 = tail call noundef ptr @_Z36pj_projection_specific_setup_gstmercP8PJconsts(ptr noundef nonnull %0)
  br label %13

4:                                                ; preds = %1
  %5 = tail call noundef ptr @_Z6pj_newv()
  %6 = icmp eq ptr %5, null
  br i1 %6, label %13, label %7

7:                                                ; preds = %4
  %8 = getelementptr inbounds i8, ptr %5, i64 8
  store ptr @.str, ptr %8, align 8
  %9 = getelementptr inbounds i8, ptr %5, i64 16
  store ptr @_ZL11des_gstmerc, ptr %9, align 8
  %10 = getelementptr inbounds i8, ptr %5, i64 360
  store i32 1, ptr %10, align 8
  %11 = getelementptr inbounds i8, ptr %5, i64 380
  store i32 4, ptr %11, align 4
  %12 = getelementptr inbounds i8, ptr %5, i64 384
  store i32 1, ptr %12, align 8
  br label %13

13:                                               ; preds = %4, %7, %2
  %.0 = phi ptr [ %3, %2 ], [ %5, %7 ], [ null, %4 ]
  ret ptr %.0
}